target datalayout = "e-m:e-p270:32:32-p271:32:32-p272:64:64-i64:64-i128:128-f80:128-n8:16:32:64-S128"
target triple = "x86_64-pc-linux-gnu"

%"struct.std::_Vector_base.945" = type { %"struct.std::_Vector_base<E_nc, std::allocator<E_nc>>::_Vector_impl" }
%"struct.std::_Vector_base<E_nc, std::allocator<E_nc>>::_Vector_impl" = type { %"struct.std::_Vector_base<E_nc, std::allocator<E_nc>>::_Vector_impl_data" }
%"struct.std::_Vector_base<E_nc, std::allocator<E_nc>>::_Vector_impl_data" = type { ptr, ptr, ptr }

; Function Attrs: mustprogress nounwind optsize uwtable
define internal void @_ZNSt15__new_allocatorIZL38nanobind_init_test_stl_bind_vector_extRN8nanobind7module_EE4E_ncEC2ERKS4_(ptr noundef nonnull align 1 dereferenceable(1) %0, ptr noundef nonnull align 1 dereferenceable(1) %1) unnamed_addr #8 align 2 {
  %3 = alloca ptr, align 8
  %4 = alloca ptr, align 8
  store ptr %0, ptr %3, align 8, !tbaa !1366
  store ptr %1, ptr %4, align 8, !tbaa !1366
  ret void
}

; Function Attrs: mustprogress nounwind optsize uwtable
define internal void @_ZNSt12_Vector_baseIZL38nanobind_init_test_stl_bind_vector_extRN8nanobind7module_EE4E_ncSaIS3_EE17_Vector_impl_dataC2EOS6_(ptr noundef nonnull align 8 dereferenceable(24) %0, ptr noundef nonnull align 8 dereferenceable(24) %1) unnamed_addr #8 align 2 {
  %3 = alloca ptr, align 8
  %4 = alloca ptr, align 8
  store ptr %0, ptr %3, align 8, !tbaa !1360
  store ptr %1, ptr %4, align 8, !tbaa !1360
  %5 = load ptr, ptr %3, align 8
  %6 = getelementptr inbounds nuw %"struct.std::_Vector_base<E_nc, std::allocator<E_nc>>::_Vector_impl_data", ptr %5, i32 0, i32 0
  %7 = load ptr, ptr %4, align 8, !tbaa !1360
  %8 = getelementptr inbounds nuw %"struct.std::_Vector_base<E_nc, std::allocator<E_nc>>::_Vector_impl_data", ptr %7, i32 0, i32 0
  %9 = load ptr, ptr %8, align 8, !tbaa !1362
  store ptr %9, ptr %6, align 8, !tbaa !1362
  %10 = getelementptr inbounds nuw %"struct.std::_Vector_base<E_nc, std::allocator<E_nc>>::_Vector_impl_data", ptr %5, i32 0, i32 1
  %11 = load ptr, ptr %4, align 8, !tbaa !1360
  %12 = getelementptr inbounds nuw %"struct.std::_Vector_base<E_nc, std::allocator<E_nc>>::_Vector_impl_data", ptr %11, i32 0, i32 1
  %13 = load ptr, ptr %12, align 8, !tbaa !1364
  store ptr %13, ptr %10, align 8, !tbaa !1364
  %14 = getelementptr inbounds nuw %"struct.std::_Vector_base<E_nc, std::allocator<E_nc>>::_Vector_impl_data", ptr %5, i32 0, i32 2
  %15 = load ptr, ptr %4, align 8, !tbaa !1360
  %16 = getelementptr inbounds nuw %"struct.std::_Vector_base<E_nc, std::allocator<E_nc>>::_Vector_impl_data", ptr %15, i32 0, i32 2
  %17 = load ptr, ptr %16, align 8, !tbaa !1365
  store ptr %17, ptr %14, align 8, !tbaa !1365
  %18 = load ptr, ptr %4, align 8, !tbaa !1360
  %19 = getelementptr inbounds nuw %"struct.std::_Vector_base<E_nc, std::allocator<E_nc>>::_Vector_impl_data", ptr %18, i32 0, i32 2
  store ptr null, ptr %19, align 8, !tbaa !1365
  %20 = load ptr, ptr %4, align 8, !tbaa !1360
  %21 = getelementptr inbounds nuw %"struct.std::_Vector_base<E_nc, std::allocator<E_nc>>::_Vector_impl_data", ptr %20, i32 0, i32 1
  store ptr null, ptr %21, align 8, !tbaa !1364
  %22 = load ptr, ptr %4, align 8, !tbaa !1360
  %23 = getelementptr inbounds nuw %"struct.std::_Vector_base<E_nc, std::allocator<E_nc>>::_Vector_impl_data", ptr %22, i32 0, i32 0
  store ptr null, ptr %23, align 8, !tbaa !1362
  ret void
}

; Function Attrs: mustprogress nounwind optsize uwtable
define internal void @_ZNSaIZL38nanobind_init_test_stl_bind_vector_extRN8nanobind7module_EE4E_ncEC2ERKS3_(ptr noundef nonnull align 1 dereferenceable(1) %0, ptr noundef nonnull align 1 dereferenceable(1) %1) unnamed_addr #8 align 2 {
  %3 = alloca ptr, align 8
  %4 = alloca ptr, align 8
  store ptr %0, ptr %3, align 8, !tbaa !1358
  store ptr %1, ptr %4, align 8, !tbaa !1358
  %5 = load ptr, ptr %3, align 8
  %6 = load ptr, ptr %4, align 8, !tbaa !1358
  call void @_ZNSt15__new_allocatorIZL38nanobind_init_test_stl_bind_vector_extRN8nanobind7module_EE4E_ncEC2ERKS4_(ptr noundef nonnull align 1 dereferenceable(1) %5, ptr noundef nonnull align 1 dereferenceable(1) %6) #22
  ret void
}

; Function Attrs: mustprogress nounwind optsize uwtable
define internal void @_ZNSt12_Vector_baseIZL38nanobind_init_test_stl_bind_vector_extRN8nanobind7module_EE4E_ncSaIS3_EE12_Vector_implC2EOS6_(ptr noundef nonnull align 8 dereferenceable(24) %0, ptr noundef nonnull align 8 dereferenceable(24) %1) unnamed_addr #8 align 2 {
  %3 = alloca ptr, align 8
  %4 = alloca ptr, align 8
  store ptr %0, ptr %3, align 8, !tbaa !1356
  store ptr %1, ptr %4, align 8, !tbaa !1356
  %5 = load ptr, ptr %3, align 8
  %6 = load ptr, ptr %4, align 8, !tbaa !1356
  call void @_ZNSaIZL38nanobind_init_test_stl_bind_vector_extRN8nanobind7module_EE4E_ncEC2ERKS3_(ptr noundef nonnull align 1 dereferenceable(1) %5, ptr noundef nonnull align 1 dereferenceable(1) %6) #22
  %7 = load ptr, ptr %4, align 8, !tbaa !1356
  call void @_ZNSt12_Vector_baseIZL38nanobind_init_test_stl_bind_vector_extRN8nanobind7module_EE4E_ncSaIS3_EE17_Vector_impl_dataC2EOS6_(ptr noundef nonnull align 8 dereferenceable(24) %5, ptr noundef nonnull align 8 dereferenceable(24) %7) #22
  ret void
}

; Function Attrs: mustprogress nounwind optsize uwtable
define internal void @_ZNSt12_Vector_baseIZL38nanobind_init_test_stl_bind_vector_extRN8nanobind7module_EE4E_ncSaIS3_EEC2EOS5_(ptr noundef nonnull align 8 dereferenceable(24) %0, ptr noundef nonnull align 8 dereferenceable(24) %1) unnamed_addr #8 align 2 {
  %3 = alloca ptr, align 8
  %4 = alloca ptr, align 8
  store ptr %0, ptr %3, align 8, !tbaa !1354
  store ptr %1, ptr %4, align 8, !tbaa !1354
  %5 = load ptr, ptr %3, align 8
  %6 = getelementptr inbounds nuw %"struct.std::_Vector_base.945", ptr %5, i32 0, i32 0
  %7 = load ptr, ptr %4, align 8, !tbaa !1354
  %8 = getelementptr inbounds nuw %"struct.std::_Vector_base.945", ptr %7, i32 0, i32 0
  call void @_ZNSt12_Vector_baseIZL38nanobind_init_test_stl_bind_vector_extRN8nanobind7module_EE4E_ncSaIS3_EE12_Vector_implC2EOS6_(ptr noundef nonnull align 8 dereferenceable(24) %6, ptr noundef nonnull align 8 dereferenceable(24) %8) #22
  ret void
}

; Function Attrs: mustprogress nounwind optsize uwtable
define internal void @_ZNSt6vectorIZL38nanobind_init_test_stl_bind_vector_extRN8nanobind7module_EE4E_ncSaIS3_EEC2EOS5_(ptr noundef nonnull align 8 dereferenceable(24) %0, ptr noundef nonnull align 8 dereferenceable(24) %1) unnamed_addr #8 align 2 {
  %3 = alloca ptr, align 8
  %4 = alloca ptr, align 8
  store ptr %0, ptr %3, align 8, !tbaa !1352
  store ptr %1, ptr %4, align 8, !tbaa !1352
  %5 = load ptr, ptr %3, align 8
  %6 = load ptr, ptr %4, align 8, !tbaa !1352
  call void @_ZNSt12_Vector_baseIZL38nanobind_init_test_stl_bind_vector_extRN8nanobind7module_EE4E_ncSaIS3_EEC2EOS5_(ptr noundef nonnull align 8 dereferenceable(24) %5, ptr noundef nonnull align 8 dereferenceable(24) %6) #22
  ret void
}

; Function Attrs: mustprogress nounwind optsize uwtable
define internal void @_ZN8nanobind6detail9wrap_moveISt6vectorIZL38nanobind_init_test_stl_bind_vector_extRNS_7module_EE4E_ncSaIS5_EEEEvPvS8_(ptr noundef %0, ptr noundef %1) #8 {
  %3 = alloca ptr, align 8
  %4 = alloca ptr, align 8
  store ptr %0, ptr %3, align 8, !tbaa !55
  store ptr %1, ptr %4, align 8, !tbaa !55
  %5 = load ptr, ptr %3, align 8, !tbaa !55
  %6 = load ptr, ptr %4, align 8, !tbaa !55
  call void @_ZNSt6vectorIZL38nanobind_init_test_stl_bind_vector_extRN8nanobind7module_EE4E_ncSaIS3_EEC2EOS5_(ptr noundef nonnull align 8 dereferenceable(24) %5, ptr noundef nonnull align 8 dereferenceable(24) %6) #22
  ret void
}