; Function Attrs: mustprogress nofree norecurse nosync nounwind optsize willreturn memory(argmem: readwrite) uwtable
define internal void @_ZN8nanobind6detail9wrap_moveISt6vectorIZL38nanobind_init_test_stl_bind_vector_extRNS_7module_EE4E_ncSaIS5_EEEEvPvS8_(ptr noundef writeonly captures(none) initializes((0, 24)) %0, ptr noundef captures(none) %1) #16 {
  %3 = load ptr, ptr %1, align 8, !tbaa !564
  store ptr %3, ptr %0, align 8, !tbaa !564
  %4 = getelementptr inbounds nuw i8, ptr %0, i64 8
  %5 = getelementptr inbounds nuw i8, ptr %1, i64 8
  %6 = load ptr, ptr %5, align 8, !tbaa !566
  store ptr %6, ptr %4, align 8, !tbaa !566
  %7 = getelementptr inbounds nuw i8, ptr %0, i64 16
  %8 = getelementptr inbounds nuw i8, ptr %1, i64 16
  %9 = load ptr, ptr %8, align 8, !tbaa !567
  store ptr %9, ptr %7, align 8, !tbaa !567
  tail call void @llvm.memset.p0.i64(ptr noundef nonnull align 8 dereferenceable(24) %1, i8 0, i64 24, i1 false)
  ret void
}